target datalayout = "e-m:e-p270:32:32-p271:32:32-p272:64:64-i64:64-i128:128-f80:128-n8:16:32:64-S128"
target triple = "x86_64-unknown-linux-gnu"

%"class.cineon::Codec" = type { ptr, ptr }

; Function Attrs: mustprogress nounwind uwtable
define hidden void @_ZN6cineon5Codec5ResetEv(ptr noundef nonnull align 8 dereferenceable(16) %this) unnamed_addr #1 align 2 {
entry:
  %this.addr = alloca ptr, align 8
  store ptr %this, ptr %this.addr, align 8
  %this1 = load ptr, ptr %this.addr, align 8
  %scanline = getelementptr inbounds %"class.cineon::Codec", ptr %this1, i32 0, i32 1
  %0 = load ptr, ptr %scanline, align 8
  %tobool = icmp ne ptr %0, null
  br i1 %tobool, label %if.then, label %if.end

if.then:                                          ; preds = %entry
  %scanline2 = getelementptr inbounds %"class.cineon::Codec", ptr %this1, i32 0, i32 1
  %1 = load ptr, ptr %scanline2, align 8
  %isnull = icmp eq ptr %1, null
  br i1 %isnull, label %delete.end, label %delete.notnull

delete.notnull:                                   ; preds = %if.then
  call void @_ZdaPv(ptr noundef %1) #9
  br label %delete.end

delete.end:                                       ; preds = %delete.notnull, %if.then
  %scanline3 = getelementptr inbounds %"class.cineon::Codec", ptr %this1, i32 0, i32 1
  store ptr null, ptr %scanline3, align 8
  br label %if.end

if.end:                                           ; preds = %delete.end, %entry
  ret void
}