; Function Attrs: mustprogress nounwind uwtable
define hidden void @_ZN6cineon5Codec5ResetEv(ptr nocapture noundef nonnull align 8 dereferenceable(16) %this) unnamed_addr #5 align 2 {
entry:
  %scanline = getelementptr inbounds i8, ptr %this, i64 8
  %0 = load ptr, ptr %scanline, align 8
  %tobool.not = icmp eq ptr %0, null
  br i1 %tobool.not, label %if.end, label %delete.notnull

delete.notnull:                                   ; preds = %entry
  tail call void @_ZdaPv(ptr noundef nonnull %0) #9
  store ptr null, ptr %scanline, align 8
  br label %if.end

if.end:                                           ; preds = %delete.notnull, %entry
  ret void
}